; Function Attrs: inlinehint nounwind uwtable
define internal fastcc void @Vec_StrPutI(ptr noundef captures(none) %0, i32 noundef %1) unnamed_addr #9 {
  %3 = icmp sgt i32 %1, 127
  br i1 %3, label %.lr.ph, label %._crit_edge

.lr.ph:                                           ; preds = %2
  %4 = getelementptr inbounds nuw i8, ptr %0, i64 4
  %.phi.trans.insert.i = getelementptr inbounds nuw i8, ptr %0, i64 8
  br label %5

5:                                                ; preds = %.lr.ph, %Vec_StrPush.exit
  %.012 = phi i32 [ %1, %.lr.ph ], [ %35, %Vec_StrPush.exit ]
  %6 = trunc i32 %.012 to i8
  %7 = or i8 %6, -128
  %8 = load i32, ptr %4, align 4, !tbaa !98
  %9 = load i32, ptr %0, align 8, !tbaa !97
  %10 = icmp eq i32 %8, %9
  br i1 %10, label %11, label %.Vec_StrGrow.exit10_crit_edge.i

.Vec_StrGrow.exit10_crit_edge.i:                  ; preds = %5
  %.pre.i = load ptr, ptr %.phi.trans.insert.i, align 8, !tbaa !59
  br label %Vec_StrPush.exit

11:                                               ; preds = %5
  %12 = icmp slt i32 %8, 16
  br i1 %12, label %13, label %20

13:                                               ; preds = %11
  %14 = load ptr, ptr %.phi.trans.insert.i, align 8, !tbaa !59
  %.not9.i.i = icmp eq ptr %14, null
  br i1 %.not9.i.i, label %17, label %15

15:                                               ; preds = %13
  %16 = tail call dereferenceable_or_null(16) ptr @realloc(ptr noundef nonnull %14, i64 noundef 16) #22
  br label %Vec_StrGrow.exit.i

17:                                               ; preds = %13
  %18 = tail call noalias dereferenceable_or_null(16) ptr @malloc(i64 noundef 16) #21
  br label %Vec_StrGrow.exit.i

Vec_StrGrow.exit.i:                               ; preds = %17, %15
  %19 = phi ptr [ %16, %15 ], [ %18, %17 ]
  store ptr %19, ptr %.phi.trans.insert.i, align 8, !tbaa !59
  store i32 16, ptr %0, align 8, !tbaa !97
  br label %Vec_StrPush.exit

20:                                               ; preds = %11
  %21 = shl nuw nsw i32 %8, 1
  %22 = load ptr, ptr %.phi.trans.insert.i, align 8, !tbaa !59
  %.not9.i9.i = icmp eq ptr %22, null
  %23 = zext nneg i32 %21 to i64
  br i1 %.not9.i9.i, label %26, label %24

24:                                               ; preds = %20
  %25 = tail call ptr @realloc(ptr noundef nonnull %22, i64 noundef %23) #22
  br label %28

26:                                               ; preds = %20
  %27 = tail call noalias ptr @malloc(i64 noundef %23) #21
  br label %28

28:                                               ; preds = %26, %24
  %29 = phi ptr [ %25, %24 ], [ %27, %26 ]
  store ptr %29, ptr %.phi.trans.insert.i, align 8, !tbaa !59
  store i32 %21, ptr %0, align 8, !tbaa !97
  br label %Vec_StrPush.exit

Vec_StrPush.exit:                                 ; preds = %.Vec_StrGrow.exit10_crit_edge.i, %Vec_StrGrow.exit.i, %28
  %30 = phi ptr [ %.pre.i, %.Vec_StrGrow.exit10_crit_edge.i ], [ %29, %28 ], [ %19, %Vec_StrGrow.exit.i ]
  %31 = load i32, ptr %4, align 4, !tbaa !98
  %32 = add nsw i32 %31, 1
  store i32 %32, ptr %4, align 4, !tbaa !98
  %33 = sext i32 %31 to i64
  %34 = getelementptr inbounds i8, ptr %30, i64 %33
  store i8 %7, ptr %34, align 1, !tbaa !62
  %35 = lshr i32 %.012, 7
  %36 = icmp ugt i32 %.012, 16383
  br i1 %36, label %5, label %._crit_edge, !llvm.loop !103

._crit_edge:                                      ; preds = %Vec_StrPush.exit, %2
  %.0.lcssa = phi i32 [ %1, %2 ], [ %35, %Vec_StrPush.exit ]
  %37 = getelementptr inbounds nuw i8, ptr %0, i64 4
  %38 = load i32, ptr %37, align 4, !tbaa !98
  %39 = load i32, ptr %0, align 8, !tbaa !97
  %40 = icmp eq i32 %38, %39
  br i1 %40, label %41, label %.Vec_StrGrow.exit10_crit_edge.i5

.Vec_StrGrow.exit10_crit_edge.i5:                 ; preds = %._crit_edge
  %.phi.trans.insert.i6 = getelementptr inbounds nuw i8, ptr %0, i64 8
  %.pre.i7 = load ptr, ptr %.phi.trans.insert.i6, align 8, !tbaa !59
  br label %Vec_StrPush.exit11

41:                                               ; preds = %._crit_edge
  %42 = icmp slt i32 %38, 16
  br i1 %42, label %43, label %51

43:                                               ; preds = %41
  %44 = getelementptr inbounds nuw i8, ptr %0, i64 8
  %45 = load ptr, ptr %44, align 8, !tbaa !59
  %.not9.i.i9 = icmp eq ptr %45, null
  br i1 %.not9.i.i9, label %48, label %46

46:                                               ; preds = %43
  %47 = tail call dereferenceable_or_null(16) ptr @realloc(ptr noundef nonnull %45, i64 noundef 16) #22
  br label %Vec_StrGrow.exit.i10

48:                                               ; preds = %43
  %49 = tail call noalias dereferenceable_or_null(16) ptr @malloc(i64 noundef 16) #21
  br label %Vec_StrGrow.exit.i10

Vec_StrGrow.exit.i10:                             ; preds = %48, %46
  %50 = phi ptr [ %47, %46 ], [ %49, %48 ]
  store ptr %50, ptr %44, align 8, !tbaa !59
  store i32 16, ptr %0, align 8, !tbaa !97
  br label %Vec_StrPush.exit11

51:                                               ; preds = %41
  %52 = shl nuw nsw i32 %38, 1
  %53 = getelementptr inbounds nuw i8, ptr %0, i64 8
  %54 = load ptr, ptr %53, align 8, !tbaa !59
  %.not9.i9.i8 = icmp eq ptr %54, null
  %55 = zext nneg i32 %52 to i64
  br i1 %.not9.i9.i8, label %58, label %56

56:                                               ; preds = %51
  %57 = tail call ptr @realloc(ptr noundef nonnull %54, i64 noundef %55) #22
  br label %60

58:                                               ; preds = %51
  %59 = tail call noalias ptr @malloc(i64 noundef %55) #21
  br label %60

60:                                               ; preds = %58, %56
  %61 = phi ptr [ %57, %56 ], [ %59, %58 ]
  store ptr %61, ptr %53, align 8, !tbaa !59
  store i32 %52, ptr %0, align 8, !tbaa !97
  br label %Vec_StrPush.exit11

Vec_StrPush.exit11:                               ; preds = %.Vec_StrGrow.exit10_crit_edge.i5, %Vec_StrGrow.exit.i10, %60
  %62 = phi ptr [ %.pre.i7, %.Vec_StrGrow.exit10_crit_edge.i5 ], [ %61, %60 ], [ %50, %Vec_StrGrow.exit.i10 ]
  %63 = trunc i32 %.0.lcssa to i8
  %64 = load i32, ptr %37, align 4, !tbaa !98
  %65 = add nsw i32 %64, 1
  store i32 %65, ptr %37, align 4, !tbaa !98
  %66 = sext i32 %64 to i64
  %67 = getelementptr inbounds i8, ptr %62, i64 %66
  store i8 %63, ptr %67, align 1, !tbaa !62
  ret void
}